target datalayout = "e-m:e-p270:32:32-p271:32:32-p272:64:64-i64:64-i128:128-f80:128-n8:16:32:64-S128"
target triple = "x86_64-unknown-linux-gnu"

%"struct.std::atomic.25" = type { %"struct.std::__atomic_base.26" }
%"struct.std::__atomic_base.26" = type { i8 }
%"struct.google::protobuf::MessageLite::ClassData" = type <{ ptr, i32, i8, [3 x i8] }>
%"class.google::protobuf::internal::CachedSize" = type { i32 }
%"class.google::protobuf::io::EpsCopyOutputStream" = type <{ ptr, ptr, [32 x i8], ptr, i8, i8, i8, i8, [4 x i8] }>

@_ZN6google8protobuf2io17CodedOutputStream36default_serialization_deterministic_E = external global %"struct.std::atomic.25", align 1

; Function Attrs: noreturn nounwind uwtable
define linkonce_odr hidden void @__clang_call_terminate(ptr noundef %0) #11 comdat {
  %2 = call ptr @__cxa_begin_catch(ptr %0) #3
  call void @_ZSt9terminatev() #19
  unreachable
}

; Function Attrs: mustprogress nounwind uwtable
define linkonce_odr noundef i32 @_ZStanSt12memory_orderSt23__memory_order_modifier(i32 noundef %__m, i32 noundef %__mod) #5 comdat {
entry:
  %__m.addr = alloca i32, align 4
  %__mod.addr = alloca i32, align 4
  store i32 %__m, ptr %__m.addr, align 4
  store i32 %__mod, ptr %__mod.addr, align 4
  %0 = load i32, ptr %__m.addr, align 4
  %1 = load i32, ptr %__mod.addr, align 4
  %and = and i32 %0, %1
  ret i32 %and
}

; Function Attrs: mustprogress nounwind uwtable
define linkonce_odr hidden noundef zeroext i1 @_ZNKSt6atomicIbE4loadESt12memory_order(ptr noundef nonnull align 1 dereferenceable(1) %this, i32 noundef %__m) #5 comdat align 2 personality ptr @__gxx_personality_v0 {
entry:
  %this.addr.i = alloca ptr, align 8
  %__m.addr.i = alloca i32, align 4
  %__b.i = alloca i32, align 4
  %atomic-temp.i = alloca i8, align 1
  %this.addr = alloca ptr, align 8
  %__m.addr = alloca i32, align 4
  store ptr %this, ptr %this.addr, align 8
  store i32 %__m, ptr %__m.addr, align 4
  %this1 = load ptr, ptr %this.addr, align 8
  %_M_base = getelementptr inbounds %"struct.std::atomic.25", ptr %this1, i32 0, i32 0
  %0 = load i32, ptr %__m.addr, align 4
  store ptr %_M_base, ptr %this.addr.i, align 8
  store i32 %0, ptr %__m.addr.i, align 4
  %this1.i = load ptr, ptr %this.addr.i, align 8
  %1 = load i32, ptr %__m.addr.i, align 4
  %call.i = invoke noundef i32 @_ZStanSt12memory_orderSt23__memory_order_modifier(i32 noundef %1, i32 noundef 65535)
          to label %invoke.cont.i unwind label %terminate.lpad.i

invoke.cont.i:                                    ; preds = %entry
  store i32 %call.i, ptr %__b.i, align 4
  %2 = load i32, ptr %__m.addr.i, align 4
  switch i32 %2, label %monotonic.i [
    i32 1, label %acquire.i
    i32 2, label %acquire.i
    i32 5, label %seqcst.i
  ]

monotonic.i:                                      ; preds = %invoke.cont.i
  %3 = load atomic i8, ptr %this1.i monotonic, align 1
  store i8 %3, ptr %atomic-temp.i, align 1
  br label %_ZNKSt13__atomic_baseIbE4loadESt12memory_order.exit

acquire.i:                                        ; preds = %invoke.cont.i, %invoke.cont.i
  %4 = load atomic i8, ptr %this1.i acquire, align 1
  store i8 %4, ptr %atomic-temp.i, align 1
  br label %_ZNKSt13__atomic_baseIbE4loadESt12memory_order.exit

seqcst.i:                                         ; preds = %invoke.cont.i
  %5 = load atomic i8, ptr %this1.i seq_cst, align 1
  store i8 %5, ptr %atomic-temp.i, align 1
  br label %_ZNKSt13__atomic_baseIbE4loadESt12memory_order.exit

terminate.lpad.i:                                 ; preds = %entry
  %6 = landingpad { ptr, i32 }
          catch ptr null
  %7 = extractvalue { ptr, i32 } %6, 0
  call void @__clang_call_terminate(ptr %7) #19
  unreachable

_ZNKSt13__atomic_baseIbE4loadESt12memory_order.exit: ; preds = %seqcst.i, %acquire.i, %monotonic.i
  %8 = load i8, ptr %atomic-temp.i, align 1
  %tobool.i = trunc i8 %8 to i1
  ret i1 %tobool.i
}

; Function Attrs: mustprogress nounwind uwtable
define linkonce_odr hidden void @_ZN6google8protobuf2io19EpsCopyOutputStreamC2EPvib(ptr noundef nonnull align 8 dereferenceable(60) %this, ptr noundef %data, i32 noundef %size, i1 noundef zeroext %deterministic) unnamed_addr #5 comdat align 2 {
entry:
  %this.addr = alloca ptr, align 8
  %data.addr = alloca ptr, align 8
  %size.addr = alloca i32, align 4
  %deterministic.addr = alloca i8, align 1
  store ptr %this, ptr %this.addr, align 8
  store ptr %data, ptr %data.addr, align 8
  store i32 %size, ptr %size.addr, align 4
  %frombool = zext i1 %deterministic to i8
  store i8 %frombool, ptr %deterministic.addr, align 1
  %this1 = load ptr, ptr %this.addr, align 8
  %end_ = getelementptr inbounds %"class.google::protobuf::io::EpsCopyOutputStream", ptr %this1, i32 0, i32 0
  %0 = load ptr, ptr %data.addr, align 8
  %1 = load i32, ptr %size.addr, align 4
  %idx.ext = sext i32 %1 to i64
  %add.ptr = getelementptr inbounds i8, ptr %0, i64 %idx.ext
  store ptr %add.ptr, ptr %end_, align 8
  %buffer_end_ = getelementptr inbounds %"class.google::protobuf::io::EpsCopyOutputStream", ptr %this1, i32 0, i32 1
  store ptr null, ptr %buffer_end_, align 8
  %stream_ = getelementptr inbounds %"class.google::protobuf::io::EpsCopyOutputStream", ptr %this1, i32 0, i32 3
  store ptr null, ptr %stream_, align 8
  %had_error_ = getelementptr inbounds %"class.google::protobuf::io::EpsCopyOutputStream", ptr %this1, i32 0, i32 4
  store i8 0, ptr %had_error_, align 8
  %aliasing_enabled_ = getelementptr inbounds %"class.google::protobuf::io::EpsCopyOutputStream", ptr %this1, i32 0, i32 5
  store i8 0, ptr %aliasing_enabled_, align 1
  %is_serialization_deterministic_ = getelementptr inbounds %"class.google::protobuf::io::EpsCopyOutputStream", ptr %this1, i32 0, i32 6
  %2 = load i8, ptr %deterministic.addr, align 1
  %tobool = trunc i8 %2 to i1
  %frombool2 = zext i1 %tobool to i8
  store i8 %frombool2, ptr %is_serialization_deterministic_, align 2
  %skip_check_consistency = getelementptr inbounds %"class.google::protobuf::io::EpsCopyOutputStream", ptr %this1, i32 0, i32 7
  store i8 0, ptr %skip_check_consistency, align 1
  ret void
}

; Function Attrs: mustprogress nounwind uwtable
define linkonce_odr hidden noundef zeroext i1 @_ZN6google8protobuf2io17CodedOutputStream35IsDefaultSerializationDeterministicEv() #5 comdat align 2 {
entry:
  %call = call noundef zeroext i1 @_ZNKSt6atomicIbE4loadESt12memory_order(ptr noundef nonnull align 1 dereferenceable(1) @_ZN6google8protobuf2io17CodedOutputStream36default_serialization_deterministic_E, i32 noundef 0) #3
  %conv = zext i1 %call to i32
  %cmp = icmp ne i32 %conv, 0
  ret i1 %cmp
}

; Function Attrs: mustprogress nounwind uwtable
define linkonce_odr hidden noundef i32 @_ZNK6google8protobuf8internal10CachedSize3GetEv(ptr noundef nonnull align 4 dereferenceable(4) %this) #5 comdat align 2 {
entry:
  %this.addr = alloca ptr, align 8
  %atomic-temp = alloca i32, align 4
  store ptr %this, ptr %this.addr, align 8
  %this1 = load ptr, ptr %this.addr, align 8
  %atom_ = getelementptr inbounds %"class.google::protobuf::internal::CachedSize", ptr %this1, i32 0, i32 0
  %0 = load atomic i32, ptr %atom_ monotonic, align 4
  store i32 %0, ptr %atomic-temp, align 4
  %1 = load i32, ptr %atomic-temp, align 4
  ret i32 %1
}

; Function Attrs: mustprogress uwtable
define noundef nonnull align 4 dereferenceable(4) ptr @_ZNK6google8protobuf11MessageLite16AccessCachedSizeEv(ptr noundef nonnull align 8 dereferenceable(16) %this) #4 align 2 {
entry:
  %this.addr = alloca ptr, align 8
  %data = alloca ptr, align 8
  store ptr %this, ptr %this.addr, align 8
  %this1 = load ptr, ptr %this.addr, align 8
  %vtable = load ptr, ptr %this1, align 8
  %vfn = getelementptr inbounds ptr, ptr %vtable, i64 8
  %0 = load ptr, ptr %vfn, align 8
  %call = call noundef ptr %0(ptr noundef nonnull align 8 dereferenceable(16) %this1)
  store ptr %call, ptr %data, align 8
  %1 = load ptr, ptr %data, align 8
  %cached_size_offset = getelementptr inbounds %"struct.google::protobuf::MessageLite::ClassData", ptr %1, i32 0, i32 1
  %2 = load i32, ptr %cached_size_offset, align 8
  %idx.ext = zext i32 %2 to i64
  %add.ptr = getelementptr inbounds i8, ptr %this1, i64 %idx.ext
  ret ptr %add.ptr
}

; Function Attrs: mustprogress uwtable
define linkonce_odr hidden noundef ptr @_ZN6google8protobuf20SerializeToArrayImplERKNS0_11MessageLiteEPhi(ptr noundef nonnull align 8 dereferenceable(16) %msg, ptr noundef %target, i32 noundef %size) #4 comdat {
entry:
  %msg.addr = alloca ptr, align 8
  %target.addr = alloca ptr, align 8
  %size.addr = alloca i32, align 4
  %debug = alloca i8, align 1
  %out = alloca %"class.google::protobuf::io::EpsCopyOutputStream", align 8
  %res = alloca ptr, align 8
  store ptr %msg, ptr %msg.addr, align 8
  store ptr %target, ptr %target.addr, align 8
  store i32 %size, ptr %size.addr, align 4
  store i8 0, ptr %debug, align 1
  %0 = load ptr, ptr %target.addr, align 8
  %1 = load i32, ptr %size.addr, align 4
  %call = call noundef zeroext i1 @_ZN6google8protobuf2io17CodedOutputStream35IsDefaultSerializationDeterministicEv()
  call void @_ZN6google8protobuf2io19EpsCopyOutputStreamC2EPvib(ptr noundef nonnull align 8 dereferenceable(60) %out, ptr noundef %0, i32 noundef %1, i1 noundef zeroext %call)
  %2 = load ptr, ptr %msg.addr, align 8
  %3 = load ptr, ptr %target.addr, align 8
  %vtable = load ptr, ptr %2, align 8
  %vfn = getelementptr inbounds ptr, ptr %vtable, i64 9
  %4 = load ptr, ptr %vfn, align 8
  %call1 = call noundef ptr %4(ptr noundef nonnull align 8 dereferenceable(16) %2, ptr noundef %3, ptr noundef %out)
  store ptr %call1, ptr %res, align 8
  %5 = load ptr, ptr %res, align 8
  ret ptr %5
}

; Function Attrs: mustprogress uwtable
define noundef i32 @_ZNK6google8protobuf11MessageLite13GetCachedSizeEv(ptr noundef nonnull align 8 dereferenceable(16) %this) #4 align 2 {
entry:
  %this.addr = alloca ptr, align 8
  store ptr %this, ptr %this.addr, align 8
  %this1 = load ptr, ptr %this.addr, align 8
  %call = call noundef nonnull align 4 dereferenceable(4) ptr @_ZNK6google8protobuf11MessageLite16AccessCachedSizeEv(ptr noundef nonnull align 8 dereferenceable(16) %this1)
  %call2 = call noundef i32 @_ZNK6google8protobuf8internal10CachedSize3GetEv(ptr noundef nonnull align 4 dereferenceable(4) %call) #3
  ret i32 %call2
}

; Function Attrs: mustprogress uwtable
define noundef ptr @_ZNK6google8protobuf11MessageLite31SerializeWithCachedSizesToArrayEPh(ptr noundef nonnull align 8 dereferenceable(16) %this, ptr noundef %target) #4 align 2 {
entry:
  %this.addr = alloca ptr, align 8
  %target.addr = alloca ptr, align 8
  store ptr %this, ptr %this.addr, align 8
  store ptr %target, ptr %target.addr, align 8
  %this1 = load ptr, ptr %this.addr, align 8
  %0 = load ptr, ptr %target.addr, align 8
  %call = call noundef i32 @_ZNK6google8protobuf11MessageLite13GetCachedSizeEv(ptr noundef nonnull align 8 dereferenceable(16) %this1)
  %call2 = call noundef ptr @_ZN6google8protobuf20SerializeToArrayImplERKNS0_11MessageLiteEPhi(ptr noundef nonnull align 8 dereferenceable(16) %this1, ptr noundef %0, i32 noundef %call)
  ret ptr %call2
}