; Function Attrs: mustprogress uwtable
define noundef ptr @_ZNK6google8protobuf11MessageLite31SerializeWithCachedSizesToArrayEPh(ptr noundef nonnull align 8 dereferenceable(16) %this, ptr noundef %target) local_unnamed_addr #3 align 2 personality ptr @__gxx_personality_v0 {
entry:
  %out.i = alloca %"class.google::protobuf::io::EpsCopyOutputStream", align 8
  %vtable.i.i = load ptr, ptr %this, align 8
  %vfn.i.i = getelementptr inbounds i8, ptr %vtable.i.i, i64 64
  %0 = load ptr, ptr %vfn.i.i, align 8
  %call.i.i = tail call noundef ptr %0(ptr noundef nonnull align 8 dereferenceable(16) %this)
  %cached_size_offset.i.i = getelementptr inbounds i8, ptr %call.i.i, i64 8
  %1 = load i32, ptr %cached_size_offset.i.i, align 8
  %idx.ext.i.i = zext i32 %1 to i64
  %add.ptr.i.i = getelementptr inbounds i8, ptr %this, i64 %idx.ext.i.i
  %2 = load atomic i32, ptr %add.ptr.i.i monotonic, align 4
  call void @llvm.lifetime.start.p0(i64 64, ptr nonnull %out.i)
  %3 = load atomic i8, ptr @_ZN6google8protobuf2io17CodedOutputStream36default_serialization_deterministic_E monotonic, align 1
  %4 = and i8 %3, 1
  %idx.ext.i.i1 = sext i32 %2 to i64
  %add.ptr.i.i2 = getelementptr inbounds i8, ptr %target, i64 %idx.ext.i.i1
  store ptr %add.ptr.i.i2, ptr %out.i, align 8
  %buffer_end_.i.i = getelementptr inbounds i8, ptr %out.i, i64 8
  store ptr null, ptr %buffer_end_.i.i, align 8
  %stream_.i.i = getelementptr inbounds i8, ptr %out.i, i64 48
  store ptr null, ptr %stream_.i.i, align 8
  %had_error_.i.i = getelementptr inbounds i8, ptr %out.i, i64 56
  store i8 0, ptr %had_error_.i.i, align 8
  %aliasing_enabled_.i.i = getelementptr inbounds i8, ptr %out.i, i64 57
  store i8 0, ptr %aliasing_enabled_.i.i, align 1
  %is_serialization_deterministic_.i.i = getelementptr inbounds i8, ptr %out.i, i64 58
  store i8 %4, ptr %is_serialization_deterministic_.i.i, align 2
  %skip_check_consistency.i.i = getelementptr inbounds i8, ptr %out.i, i64 59
  store i8 0, ptr %skip_check_consistency.i.i, align 1
  %vtable.i = load ptr, ptr %this, align 8
  %vfn.i = getelementptr inbounds i8, ptr %vtable.i, i64 72
  %5 = load ptr, ptr %vfn.i, align 8
  %call1.i = call noundef ptr %5(ptr noundef nonnull align 8 dereferenceable(16) %this, ptr noundef %target, ptr noundef nonnull %out.i)
  call void @llvm.lifetime.end.p0(i64 64, ptr nonnull %out.i)
  ret ptr %call1.i
}